target datalayout = "e-m:e-p270:32:32-p271:32:32-p272:64:64-i64:64-i128:128-f80:128-n8:16:32:64-S128"
target triple = "x86_64-unknown-linux-gnu"

%"class.QuantLib::Date" = type { i64 }

@_ZZN8QuantLib4Date7maxDateEvE11maximumDate = internal global %"class.QuantLib::Date" zeroinitializer, align 8
@_ZGVZN8QuantLib4Date7maxDateEvE11maximumDate = internal global i64 0, align 8
@_ZN8QuantLib4DateC1El = unnamed_addr alias void (ptr, i64), ptr @_ZN8QuantLib4DateC2El

; Function Attrs: mustprogress nounwind uwtable
define noundef i64 @_ZN8QuantLib4Date19maximumSerialNumberEv() #4 align 2 {
entry:
  ret i64 109574
}

; Function Attrs: mustprogress uwtable
define i64 @_ZN8QuantLib4Date7maxDateEv() #5 align 2 personality ptr @__gxx_personality_v0 {
entry:
  %retval = alloca %"class.QuantLib::Date", align 8
  %exn.slot = alloca ptr, align 8
  %ehselector.slot = alloca i32, align 4
  %0 = load atomic i8, ptr @_ZGVZN8QuantLib4Date7maxDateEvE11maximumDate acquire, align 8
  %guard.uninitialized = icmp eq i8 %0, 0
  br i1 %guard.uninitialized, label %init.check, label %init.end, !prof !31

init.check:                                       ; preds = %entry
  %1 = call i32 @__cxa_guard_acquire(ptr @_ZGVZN8QuantLib4Date7maxDateEvE11maximumDate) #3
  %tobool = icmp ne i32 %1, 0
  br i1 %tobool, label %init, label %init.end

init:                                             ; preds = %init.check
  %call = call noundef i64 @_ZN8QuantLib4Date19maximumSerialNumberEv()
  invoke void @_ZN8QuantLib4DateC1El(ptr noundef nonnull align 8 dereferenceable(8) @_ZZN8QuantLib4Date7maxDateEvE11maximumDate, i64 noundef %call)
          to label %invoke.cont unwind label %lpad

invoke.cont:                                      ; preds = %init
  %2 = call ptr @llvm.invariant.start.p0(i64 8, ptr @_ZZN8QuantLib4Date7maxDateEvE11maximumDate)
  call void @__cxa_guard_release(ptr @_ZGVZN8QuantLib4Date7maxDateEvE11maximumDate) #3
  br label %init.end

init.end:                                         ; preds = %invoke.cont, %init.check, %entry
  call void @llvm.memcpy.p0.p0.i64(ptr align 8 %retval, ptr align 8 @_ZZN8QuantLib4Date7maxDateEvE11maximumDate, i64 8, i1 false), !tbaa.struct !32
  %coerce.dive = getelementptr inbounds nuw %"class.QuantLib::Date", ptr %retval, i32 0, i32 0
  %3 = load i64, ptr %coerce.dive, align 8
  ret i64 %3

lpad:                                             ; preds = %init
  %4 = landingpad { ptr, i32 }
          cleanup
  %5 = extractvalue { ptr, i32 } %4, 0
  store ptr %5, ptr %exn.slot, align 8
  %6 = extractvalue { ptr, i32 } %4, 1
  store i32 %6, ptr %ehselector.slot, align 4
  call void @__cxa_guard_abort(ptr @_ZGVZN8QuantLib4Date7maxDateEvE11maximumDate) #3
  br label %eh.resume

eh.resume:                                        ; preds = %lpad
  %exn = load ptr, ptr %exn.slot, align 8
  %sel = load i32, ptr %ehselector.slot, align 4
  %lpad.val = insertvalue { ptr, i32 } poison, ptr %exn, 0
  %lpad.val1 = insertvalue { ptr, i32 } %lpad.val, i32 %sel, 1
  resume { ptr, i32 } %lpad.val1
}